ARM GAS  /tmp/cc2VegoE.s 			page 1


   1              		.cpu cortex-m4
   2              		.eabi_attribute 27, 1
   3              		.eabi_attribute 28, 1
   4              		.eabi_attribute 20, 1
   5              		.eabi_attribute 21, 1
   6              		.eabi_attribute 23, 3
   7              		.eabi_attribute 24, 1
   8              		.eabi_attribute 25, 1
   9              		.eabi_attribute 26, 1
  10              		.eabi_attribute 30, 1
  11              		.eabi_attribute 34, 1
  12              		.eabi_attribute 18, 4
  13              		.file	"adc.c"
  14              		.text
  15              	.Ltext0:
  16              		.cfi_sections	.debug_frame
  17              		.section	.text.MX_ADC3_Init,"ax",%progbits
  18              		.align	1
  19              		.global	MX_ADC3_Init
  20              		.arch armv7e-m
  21              		.syntax unified
  22              		.thumb
  23              		.thumb_func
  24              		.fpu fpv4-sp-d16
  26              	MX_ADC3_Init:
  27              	.LFB235:
  28              		.file 1 "Core/Src/adc.c"
   1:Core/Src/adc.c **** /* USER CODE BEGIN Header */
   2:Core/Src/adc.c **** /**
   3:Core/Src/adc.c ****   ******************************************************************************
   4:Core/Src/adc.c ****   * @file    adc.c
   5:Core/Src/adc.c ****   * @brief   This file provides code for the configuration
   6:Core/Src/adc.c ****   *          of the ADC instances.
   7:Core/Src/adc.c ****   ******************************************************************************
   8:Core/Src/adc.c ****   * @attention
   9:Core/Src/adc.c ****   *
  10:Core/Src/adc.c ****   * Copyright (c) 2022 STMicroelectronics.
  11:Core/Src/adc.c ****   * All rights reserved.
  12:Core/Src/adc.c ****   *
  13:Core/Src/adc.c ****   * This software is licensed under terms that can be found in the LICENSE file
  14:Core/Src/adc.c ****   * in the root directory of this software component.
  15:Core/Src/adc.c ****   * If no LICENSE file comes with this software, it is provided AS-IS.
  16:Core/Src/adc.c ****   *
  17:Core/Src/adc.c ****   ******************************************************************************
  18:Core/Src/adc.c ****   */
  19:Core/Src/adc.c **** /* USER CODE END Header */
  20:Core/Src/adc.c **** /* Includes ------------------------------------------------------------------*/
  21:Core/Src/adc.c **** #include "adc.h"
  22:Core/Src/adc.c **** 
  23:Core/Src/adc.c **** /* USER CODE BEGIN 0 */
  24:Core/Src/adc.c **** 
  25:Core/Src/adc.c **** /* USER CODE END 0 */
  26:Core/Src/adc.c **** 
  27:Core/Src/adc.c **** ADC_HandleTypeDef hadc3;
  28:Core/Src/adc.c **** 
  29:Core/Src/adc.c **** /* ADC3 init function */
  30:Core/Src/adc.c **** void MX_ADC3_Init(void)
ARM GAS  /tmp/cc2VegoE.s 			page 2


  31:Core/Src/adc.c **** {
  29              		.loc 1 31 1 view -0
  30              		.cfi_startproc
  31              		@ args = 0, pretend = 0, frame = 16
  32              		@ frame_needed = 0, uses_anonymous_args = 0
  33 0000 00B5     		push	{lr}
  34              	.LCFI0:
  35              		.cfi_def_cfa_offset 4
  36              		.cfi_offset 14, -4
  37 0002 85B0     		sub	sp, sp, #20
  38              	.LCFI1:
  39              		.cfi_def_cfa_offset 24
  32:Core/Src/adc.c **** 
  33:Core/Src/adc.c ****   /* USER CODE BEGIN ADC3_Init 0 */
  34:Core/Src/adc.c **** 
  35:Core/Src/adc.c ****   /* USER CODE END ADC3_Init 0 */
  36:Core/Src/adc.c **** 
  37:Core/Src/adc.c ****   ADC_ChannelConfTypeDef sConfig = {0};
  40              		.loc 1 37 3 view .LVU1
  41              		.loc 1 37 26 is_stmt 0 view .LVU2
  42 0004 0023     		movs	r3, #0
  43 0006 0093     		str	r3, [sp]
  44 0008 0193     		str	r3, [sp, #4]
  45 000a 0293     		str	r3, [sp, #8]
  46 000c 0393     		str	r3, [sp, #12]
  38:Core/Src/adc.c **** 
  39:Core/Src/adc.c ****   /* USER CODE BEGIN ADC3_Init 1 */
  40:Core/Src/adc.c **** 
  41:Core/Src/adc.c ****   /* USER CODE END ADC3_Init 1 */
  42:Core/Src/adc.c ****   /** Configure the global features of the ADC (Clock, Resolution, Data Alignment and number of con
  43:Core/Src/adc.c ****   */
  44:Core/Src/adc.c ****   hadc3.Instance = ADC3;
  47              		.loc 1 44 3 is_stmt 1 view .LVU3
  48              		.loc 1 44 18 is_stmt 0 view .LVU4
  49 000e 1448     		ldr	r0, .L7
  50 0010 144A     		ldr	r2, .L7+4
  51 0012 0260     		str	r2, [r0]
  45:Core/Src/adc.c ****   hadc3.Init.ClockPrescaler = ADC_CLOCK_SYNC_PCLK_DIV2;
  52              		.loc 1 45 3 is_stmt 1 view .LVU5
  53              		.loc 1 45 29 is_stmt 0 view .LVU6
  54 0014 4360     		str	r3, [r0, #4]
  46:Core/Src/adc.c ****   hadc3.Init.Resolution = ADC_RESOLUTION_12B;
  55              		.loc 1 46 3 is_stmt 1 view .LVU7
  56              		.loc 1 46 25 is_stmt 0 view .LVU8
  57 0016 8360     		str	r3, [r0, #8]
  47:Core/Src/adc.c ****   hadc3.Init.ScanConvMode = DISABLE;
  58              		.loc 1 47 3 is_stmt 1 view .LVU9
  59              		.loc 1 47 27 is_stmt 0 view .LVU10
  60 0018 0361     		str	r3, [r0, #16]
  48:Core/Src/adc.c ****   hadc3.Init.ContinuousConvMode = DISABLE;
  61              		.loc 1 48 3 is_stmt 1 view .LVU11
  62              		.loc 1 48 33 is_stmt 0 view .LVU12
  63 001a 0376     		strb	r3, [r0, #24]
  49:Core/Src/adc.c ****   hadc3.Init.DiscontinuousConvMode = DISABLE;
  64              		.loc 1 49 3 is_stmt 1 view .LVU13
  65              		.loc 1 49 36 is_stmt 0 view .LVU14
  66 001c 80F82030 		strb	r3, [r0, #32]
ARM GAS  /tmp/cc2VegoE.s 			page 3


  50:Core/Src/adc.c ****   hadc3.Init.ExternalTrigConvEdge = ADC_EXTERNALTRIGCONVEDGE_NONE;
  67              		.loc 1 50 3 is_stmt 1 view .LVU15
  68              		.loc 1 50 35 is_stmt 0 view .LVU16
  69 0020 C362     		str	r3, [r0, #44]
  51:Core/Src/adc.c ****   hadc3.Init.ExternalTrigConv = ADC_SOFTWARE_START;
  70              		.loc 1 51 3 is_stmt 1 view .LVU17
  71              		.loc 1 51 31 is_stmt 0 view .LVU18
  72 0022 114A     		ldr	r2, .L7+8
  73 0024 8262     		str	r2, [r0, #40]
  52:Core/Src/adc.c ****   hadc3.Init.DataAlign = ADC_DATAALIGN_RIGHT;
  74              		.loc 1 52 3 is_stmt 1 view .LVU19
  75              		.loc 1 52 24 is_stmt 0 view .LVU20
  76 0026 C360     		str	r3, [r0, #12]
  53:Core/Src/adc.c ****   hadc3.Init.NbrOfConversion = 1;
  77              		.loc 1 53 3 is_stmt 1 view .LVU21
  78              		.loc 1 53 30 is_stmt 0 view .LVU22
  79 0028 0122     		movs	r2, #1
  80 002a C261     		str	r2, [r0, #28]
  54:Core/Src/adc.c ****   hadc3.Init.DMAContinuousRequests = DISABLE;
  81              		.loc 1 54 3 is_stmt 1 view .LVU23
  82              		.loc 1 54 36 is_stmt 0 view .LVU24
  83 002c 80F83030 		strb	r3, [r0, #48]
  55:Core/Src/adc.c ****   hadc3.Init.EOCSelection = ADC_EOC_SINGLE_CONV;
  84              		.loc 1 55 3 is_stmt 1 view .LVU25
  85              		.loc 1 55 27 is_stmt 0 view .LVU26
  86 0030 4261     		str	r2, [r0, #20]
  56:Core/Src/adc.c ****   if (HAL_ADC_Init(&hadc3) != HAL_OK)
  87              		.loc 1 56 3 is_stmt 1 view .LVU27
  88              		.loc 1 56 7 is_stmt 0 view .LVU28
  89 0032 FFF7FEFF 		bl	HAL_ADC_Init
  90              	.LVL0:
  91              		.loc 1 56 6 view .LVU29
  92 0036 68B9     		cbnz	r0, .L5
  93              	.L2:
  57:Core/Src/adc.c ****   {
  58:Core/Src/adc.c ****     Error_Handler();
  59:Core/Src/adc.c ****   }
  60:Core/Src/adc.c ****   /** Configure for the selected ADC regular channel its corresponding rank in the sequencer and it
  61:Core/Src/adc.c ****   */
  62:Core/Src/adc.c ****   sConfig.Channel = ADC_CHANNEL_4;
  94              		.loc 1 62 3 is_stmt 1 view .LVU30
  95              		.loc 1 62 19 is_stmt 0 view .LVU31
  96 0038 0423     		movs	r3, #4
  97 003a 0093     		str	r3, [sp]
  63:Core/Src/adc.c ****   sConfig.Rank = 1;
  98              		.loc 1 63 3 is_stmt 1 view .LVU32
  99              		.loc 1 63 16 is_stmt 0 view .LVU33
 100 003c 0123     		movs	r3, #1
 101 003e 0193     		str	r3, [sp, #4]
  64:Core/Src/adc.c ****   sConfig.SamplingTime = ADC_SAMPLETIME_3CYCLES;
 102              		.loc 1 64 3 is_stmt 1 view .LVU34
 103              		.loc 1 64 24 is_stmt 0 view .LVU35
 104 0040 0023     		movs	r3, #0
 105 0042 0293     		str	r3, [sp, #8]
  65:Core/Src/adc.c ****   if (HAL_ADC_ConfigChannel(&hadc3, &sConfig) != HAL_OK)
 106              		.loc 1 65 3 is_stmt 1 view .LVU36
 107              		.loc 1 65 7 is_stmt 0 view .LVU37
ARM GAS  /tmp/cc2VegoE.s 			page 4


 108 0044 6946     		mov	r1, sp
 109 0046 0648     		ldr	r0, .L7
 110 0048 FFF7FEFF 		bl	HAL_ADC_ConfigChannel
 111              	.LVL1:
 112              		.loc 1 65 6 view .LVU38
 113 004c 28B9     		cbnz	r0, .L6
 114              	.L1:
  66:Core/Src/adc.c ****   {
  67:Core/Src/adc.c ****     Error_Handler();
  68:Core/Src/adc.c ****   }
  69:Core/Src/adc.c ****   /* USER CODE BEGIN ADC3_Init 2 */
  70:Core/Src/adc.c **** 
  71:Core/Src/adc.c ****   /* USER CODE END ADC3_Init 2 */
  72:Core/Src/adc.c **** 
  73:Core/Src/adc.c **** }
 115              		.loc 1 73 1 view .LVU39
 116 004e 05B0     		add	sp, sp, #20
 117              	.LCFI2:
 118              		.cfi_remember_state
 119              		.cfi_def_cfa_offset 4
 120              		@ sp needed
 121 0050 5DF804FB 		ldr	pc, [sp], #4
 122              	.L5:
 123              	.LCFI3:
 124              		.cfi_restore_state
  58:Core/Src/adc.c ****   }
 125              		.loc 1 58 5 is_stmt 1 view .LVU40
 126 0054 FFF7FEFF 		bl	Error_Handler
 127              	.LVL2:
 128 0058 EEE7     		b	.L2
 129              	.L6:
  67:Core/Src/adc.c ****   }
 130              		.loc 1 67 5 view .LVU41
 131 005a FFF7FEFF 		bl	Error_Handler
 132              	.LVL3:
 133              		.loc 1 73 1 is_stmt 0 view .LVU42
 134 005e F6E7     		b	.L1
 135              	.L8:
 136              		.align	2
 137              	.L7:
 138 0060 00000000 		.word	hadc3
 139 0064 00220140 		.word	1073816064
 140 0068 0100000F 		.word	251658241
 141              		.cfi_endproc
 142              	.LFE235:
 144              		.section	.text.HAL_ADC_MspInit,"ax",%progbits
 145              		.align	1
 146              		.global	HAL_ADC_MspInit
 147              		.syntax unified
 148              		.thumb
 149              		.thumb_func
 150              		.fpu fpv4-sp-d16
 152              	HAL_ADC_MspInit:
 153              	.LVL4:
 154              	.LFB236:
  74:Core/Src/adc.c **** 
  75:Core/Src/adc.c **** void HAL_ADC_MspInit(ADC_HandleTypeDef* adcHandle)
ARM GAS  /tmp/cc2VegoE.s 			page 5


  76:Core/Src/adc.c **** {
 155              		.loc 1 76 1 is_stmt 1 view -0
 156              		.cfi_startproc
 157              		@ args = 0, pretend = 0, frame = 32
 158              		@ frame_needed = 0, uses_anonymous_args = 0
 159              		.loc 1 76 1 is_stmt 0 view .LVU44
 160 0000 00B5     		push	{lr}
 161              	.LCFI4:
 162              		.cfi_def_cfa_offset 4
 163              		.cfi_offset 14, -4
 164 0002 89B0     		sub	sp, sp, #36
 165              	.LCFI5:
 166              		.cfi_def_cfa_offset 40
  77:Core/Src/adc.c **** 
  78:Core/Src/adc.c ****   GPIO_InitTypeDef GPIO_InitStruct = {0};
 167              		.loc 1 78 3 is_stmt 1 view .LVU45
 168              		.loc 1 78 20 is_stmt 0 view .LVU46
 169 0004 0023     		movs	r3, #0
 170 0006 0393     		str	r3, [sp, #12]
 171 0008 0493     		str	r3, [sp, #16]
 172 000a 0593     		str	r3, [sp, #20]
 173 000c 0693     		str	r3, [sp, #24]
 174 000e 0793     		str	r3, [sp, #28]
  79:Core/Src/adc.c ****   if(adcHandle->Instance==ADC3)
 175              		.loc 1 79 3 is_stmt 1 view .LVU47
 176              		.loc 1 79 15 is_stmt 0 view .LVU48
 177 0010 0268     		ldr	r2, [r0]
 178              		.loc 1 79 5 view .LVU49
 179 0012 134B     		ldr	r3, .L13
 180 0014 9A42     		cmp	r2, r3
 181 0016 02D0     		beq	.L12
 182              	.LVL5:
 183              	.L9:
  80:Core/Src/adc.c ****   {
  81:Core/Src/adc.c ****   /* USER CODE BEGIN ADC3_MspInit 0 */
  82:Core/Src/adc.c **** 
  83:Core/Src/adc.c ****   /* USER CODE END ADC3_MspInit 0 */
  84:Core/Src/adc.c ****     /* ADC3 clock enable */
  85:Core/Src/adc.c ****     __HAL_RCC_ADC3_CLK_ENABLE();
  86:Core/Src/adc.c **** 
  87:Core/Src/adc.c ****     __HAL_RCC_GPIOF_CLK_ENABLE();
  88:Core/Src/adc.c ****     /**ADC3 GPIO Configuration
  89:Core/Src/adc.c ****     PF6     ------> ADC3_IN4
  90:Core/Src/adc.c ****     */
  91:Core/Src/adc.c ****     GPIO_InitStruct.Pin = GPIO_PIN_6;
  92:Core/Src/adc.c ****     GPIO_InitStruct.Mode = GPIO_MODE_ANALOG;
  93:Core/Src/adc.c ****     GPIO_InitStruct.Pull = GPIO_NOPULL;
  94:Core/Src/adc.c ****     HAL_GPIO_Init(GPIOF, &GPIO_InitStruct);
  95:Core/Src/adc.c **** 
  96:Core/Src/adc.c ****   /* USER CODE BEGIN ADC3_MspInit 1 */
  97:Core/Src/adc.c **** 
  98:Core/Src/adc.c ****   /* USER CODE END ADC3_MspInit 1 */
  99:Core/Src/adc.c ****   }
 100:Core/Src/adc.c **** }
 184              		.loc 1 100 1 view .LVU50
 185 0018 09B0     		add	sp, sp, #36
 186              	.LCFI6:
ARM GAS  /tmp/cc2VegoE.s 			page 6


 187              		.cfi_remember_state
 188              		.cfi_def_cfa_offset 4
 189              		@ sp needed
 190 001a 5DF804FB 		ldr	pc, [sp], #4
 191              	.LVL6:
 192              	.L12:
 193              	.LCFI7:
 194              		.cfi_restore_state
  85:Core/Src/adc.c **** 
 195              		.loc 1 85 5 is_stmt 1 view .LVU51
 196              	.LBB2:
  85:Core/Src/adc.c **** 
 197              		.loc 1 85 5 view .LVU52
 198 001e 0022     		movs	r2, #0
 199 0020 0192     		str	r2, [sp, #4]
  85:Core/Src/adc.c **** 
 200              		.loc 1 85 5 view .LVU53
 201 0022 03F58B33 		add	r3, r3, #71168
 202 0026 596C     		ldr	r1, [r3, #68]
 203 0028 41F48061 		orr	r1, r1, #1024
 204 002c 5964     		str	r1, [r3, #68]
  85:Core/Src/adc.c **** 
 205              		.loc 1 85 5 view .LVU54
 206 002e 596C     		ldr	r1, [r3, #68]
 207 0030 01F48061 		and	r1, r1, #1024
 208 0034 0191     		str	r1, [sp, #4]
  85:Core/Src/adc.c **** 
 209              		.loc 1 85 5 view .LVU55
 210 0036 0199     		ldr	r1, [sp, #4]
 211              	.LBE2:
  85:Core/Src/adc.c **** 
 212              		.loc 1 85 5 view .LVU56
  87:Core/Src/adc.c ****     /**ADC3 GPIO Configuration
 213              		.loc 1 87 5 view .LVU57
 214              	.LBB3:
  87:Core/Src/adc.c ****     /**ADC3 GPIO Configuration
 215              		.loc 1 87 5 view .LVU58
 216 0038 0292     		str	r2, [sp, #8]
  87:Core/Src/adc.c ****     /**ADC3 GPIO Configuration
 217              		.loc 1 87 5 view .LVU59
 218 003a 196B     		ldr	r1, [r3, #48]
 219 003c 41F02001 		orr	r1, r1, #32
 220 0040 1963     		str	r1, [r3, #48]
  87:Core/Src/adc.c ****     /**ADC3 GPIO Configuration
 221              		.loc 1 87 5 view .LVU60
 222 0042 1B6B     		ldr	r3, [r3, #48]
 223 0044 03F02003 		and	r3, r3, #32
 224 0048 0293     		str	r3, [sp, #8]
  87:Core/Src/adc.c ****     /**ADC3 GPIO Configuration
 225              		.loc 1 87 5 view .LVU61
 226 004a 029B     		ldr	r3, [sp, #8]
 227              	.LBE3:
  87:Core/Src/adc.c ****     /**ADC3 GPIO Configuration
 228              		.loc 1 87 5 view .LVU62
  91:Core/Src/adc.c ****     GPIO_InitStruct.Mode = GPIO_MODE_ANALOG;
 229              		.loc 1 91 5 view .LVU63
  91:Core/Src/adc.c ****     GPIO_InitStruct.Mode = GPIO_MODE_ANALOG;
ARM GAS  /tmp/cc2VegoE.s 			page 7


 230              		.loc 1 91 25 is_stmt 0 view .LVU64
 231 004c 4023     		movs	r3, #64
 232 004e 0393     		str	r3, [sp, #12]
  92:Core/Src/adc.c ****     GPIO_InitStruct.Pull = GPIO_NOPULL;
 233              		.loc 1 92 5 is_stmt 1 view .LVU65
  92:Core/Src/adc.c ****     GPIO_InitStruct.Pull = GPIO_NOPULL;
 234              		.loc 1 92 26 is_stmt 0 view .LVU66
 235 0050 0323     		movs	r3, #3
 236 0052 0493     		str	r3, [sp, #16]
  93:Core/Src/adc.c ****     HAL_GPIO_Init(GPIOF, &GPIO_InitStruct);
 237              		.loc 1 93 5 is_stmt 1 view .LVU67
  93:Core/Src/adc.c ****     HAL_GPIO_Init(GPIOF, &GPIO_InitStruct);
 238              		.loc 1 93 26 is_stmt 0 view .LVU68
 239 0054 0592     		str	r2, [sp, #20]
  94:Core/Src/adc.c **** 
 240              		.loc 1 94 5 is_stmt 1 view .LVU69
 241 0056 03A9     		add	r1, sp, #12
 242 0058 0248     		ldr	r0, .L13+4
 243              	.LVL7:
  94:Core/Src/adc.c **** 
 244              		.loc 1 94 5 is_stmt 0 view .LVU70
 245 005a FFF7FEFF 		bl	HAL_GPIO_Init
 246              	.LVL8:
 247              		.loc 1 100 1 view .LVU71
 248 005e DBE7     		b	.L9
 249              	.L14:
 250              		.align	2
 251              	.L13:
 252 0060 00220140 		.word	1073816064
 253 0064 00140240 		.word	1073878016
 254              		.cfi_endproc
 255              	.LFE236:
 257              		.section	.text.HAL_ADC_MspDeInit,"ax",%progbits
 258              		.align	1
 259              		.global	HAL_ADC_MspDeInit
 260              		.syntax unified
 261              		.thumb
 262              		.thumb_func
 263              		.fpu fpv4-sp-d16
 265              	HAL_ADC_MspDeInit:
 266              	.LVL9:
 267              	.LFB237:
 101:Core/Src/adc.c **** 
 102:Core/Src/adc.c **** void HAL_ADC_MspDeInit(ADC_HandleTypeDef* adcHandle)
 103:Core/Src/adc.c **** {
 268              		.loc 1 103 1 is_stmt 1 view -0
 269              		.cfi_startproc
 270              		@ args = 0, pretend = 0, frame = 0
 271              		@ frame_needed = 0, uses_anonymous_args = 0
 272              		.loc 1 103 1 is_stmt 0 view .LVU73
 273 0000 08B5     		push	{r3, lr}
 274              	.LCFI8:
 275              		.cfi_def_cfa_offset 8
 276              		.cfi_offset 3, -8
 277              		.cfi_offset 14, -4
 104:Core/Src/adc.c **** 
 105:Core/Src/adc.c ****   if(adcHandle->Instance==ADC3)
ARM GAS  /tmp/cc2VegoE.s 			page 8


 278              		.loc 1 105 3 is_stmt 1 view .LVU74
 279              		.loc 1 105 15 is_stmt 0 view .LVU75
 280 0002 0268     		ldr	r2, [r0]
 281              		.loc 1 105 5 view .LVU76
 282 0004 064B     		ldr	r3, .L19
 283 0006 9A42     		cmp	r2, r3
 284 0008 00D0     		beq	.L18
 285              	.LVL10:
 286              	.L15:
 106:Core/Src/adc.c ****   {
 107:Core/Src/adc.c ****   /* USER CODE BEGIN ADC3_MspDeInit 0 */
 108:Core/Src/adc.c **** 
 109:Core/Src/adc.c ****   /* USER CODE END ADC3_MspDeInit 0 */
 110:Core/Src/adc.c ****     /* Peripheral clock disable */
 111:Core/Src/adc.c ****     __HAL_RCC_ADC3_CLK_DISABLE();
 112:Core/Src/adc.c **** 
 113:Core/Src/adc.c ****     /**ADC3 GPIO Configuration
 114:Core/Src/adc.c ****     PF6     ------> ADC3_IN4
 115:Core/Src/adc.c ****     */
 116:Core/Src/adc.c ****     HAL_GPIO_DeInit(GPIOF, GPIO_PIN_6);
 117:Core/Src/adc.c **** 
 118:Core/Src/adc.c ****   /* USER CODE BEGIN ADC3_MspDeInit 1 */
 119:Core/Src/adc.c **** 
 120:Core/Src/adc.c ****   /* USER CODE END ADC3_MspDeInit 1 */
 121:Core/Src/adc.c ****   }
 122:Core/Src/adc.c **** }
 287              		.loc 1 122 1 view .LVU77
 288 000a 08BD     		pop	{r3, pc}
 289              	.LVL11:
 290              	.L18:
 111:Core/Src/adc.c **** 
 291              		.loc 1 111 5 is_stmt 1 view .LVU78
 292 000c 054A     		ldr	r2, .L19+4
 293 000e 536C     		ldr	r3, [r2, #68]
 294 0010 23F48063 		bic	r3, r3, #1024
 295 0014 5364     		str	r3, [r2, #68]
 116:Core/Src/adc.c **** 
 296              		.loc 1 116 5 view .LVU79
 297 0016 4021     		movs	r1, #64
 298 0018 0348     		ldr	r0, .L19+8
 299              	.LVL12:
 116:Core/Src/adc.c **** 
 300              		.loc 1 116 5 is_stmt 0 view .LVU80
 301 001a FFF7FEFF 		bl	HAL_GPIO_DeInit
 302              	.LVL13:
 303              		.loc 1 122 1 view .LVU81
 304 001e F4E7     		b	.L15
 305              	.L20:
 306              		.align	2
 307              	.L19:
 308 0020 00220140 		.word	1073816064
 309 0024 00380240 		.word	1073887232
 310 0028 00140240 		.word	1073878016
 311              		.cfi_endproc
 312              	.LFE237:
 314              		.comm	hadc3,72,4
 315              		.text
ARM GAS  /tmp/cc2VegoE.s 			page 9


 316              	.Letext0:
 317              		.file 2 "/usr/lib/gcc/arm-none-eabi/9.2.1/include/stdint.h"
 318              		.file 3 "Drivers/CMSIS/Include/core_cm4.h"
 319              		.file 4 "Drivers/CMSIS/Device/ST/STM32F4xx/Include/system_stm32f4xx.h"
 320              		.file 5 "Drivers/CMSIS/Device/ST/STM32F4xx/Include/stm32f429xx.h"
 321              		.file 6 "Drivers/CMSIS/Device/ST/STM32F4xx/Include/stm32f4xx.h"
 322              		.file 7 "Drivers/STM32F4xx_HAL_Driver/Inc/stm32f4xx_hal_def.h"
 323              		.file 8 "Drivers/STM32F4xx_HAL_Driver/Inc/stm32f4xx_hal_gpio.h"
 324              		.file 9 "Drivers/STM32F4xx_HAL_Driver/Inc/stm32f4xx_hal_dma.h"
 325              		.file 10 "Drivers/STM32F4xx_HAL_Driver/Inc/stm32f4xx_hal_adc.h"
 326              		.file 11 "Drivers/STM32F4xx_HAL_Driver/Inc/stm32f4xx_hal.h"
 327              		.file 12 "Core/Inc/adc.h"
 328              		.file 13 "Core/Inc/main.h"
ARM GAS  /tmp/cc2VegoE.s 			page 10

